ARM GAS  /tmp/ccjqiUOA.s 			page 1


   1              		.cpu cortex-m4
   2              		.arch armv7e-m
   3              		.fpu fpv4-sp-d16
   4              		.eabi_attribute 27, 1
   5              		.eabi_attribute 28, 1
   6              		.eabi_attribute 20, 1
   7              		.eabi_attribute 21, 1
   8              		.eabi_attribute 23, 3
   9              		.eabi_attribute 24, 1
  10              		.eabi_attribute 25, 1
  11              		.eabi_attribute 26, 1
  12              		.eabi_attribute 30, 1
  13              		.eabi_attribute 34, 1
  14              		.eabi_attribute 18, 4
  15              		.file	"can_send_timebase.c"
  16              		.text
  17              	.Ltext0:
  18              		.cfi_sections	.debug_frame
  19              		.file 1 "Core/Src/can_send_timebase.c"
  20              		.section	.text.front_1_cb,"ax",%progbits
  21              		.align	1
  22              		.global	front_1_cb
  23              		.syntax unified
  24              		.thumb
  25              		.thumb_func
  27              	front_1_cb:
  28              	.LFB235:
   1:Core/Src/can_send_timebase.c **** #include "can_send_timebase.h"
   2:Core/Src/can_send_timebase.c **** #include "can_utils.h"
   3:Core/Src/can_send_timebase.c **** #include "utils.h"
   4:Core/Src/can_send_timebase.c **** 
   5:Core/Src/can_send_timebase.c **** TIMEBASE_HandleTypeDef can_send_timebase_handle;
   6:Core/Src/can_send_timebase.c **** 
   7:Core/Src/can_send_timebase.c **** STMLIBS_StatusTypeDef front_1_cb(void)
   8:Core/Src/can_send_timebase.c **** {
  29              		.loc 1 8 1 view -0
  30              		.cfi_startproc
  31              		@ args = 0, pretend = 0, frame = 0
  32              		@ frame_needed = 0, uses_anonymous_args = 0
  33 0000 08B5     		push	{r3, lr}
  34              		.cfi_def_cfa_offset 8
  35              		.cfi_offset 3, -8
  36              		.cfi_offset 14, -4
   9:Core/Src/can_send_timebase.c ****     can_send_msg(SC22_EVO_CANLV_SENS_FRONT_1_FRAME_ID);
  37              		.loc 1 9 5 view .LVU1
  38 0002 0520     		movs	r0, #5
  39 0004 FFF7FEFF 		bl	can_send_msg
  40              	.LVL0:
  10:Core/Src/can_send_timebase.c ****     return STMLIBS_OK;
  41              		.loc 1 10 5 view .LVU2
  11:Core/Src/can_send_timebase.c **** }
  42              		.loc 1 11 1 is_stmt 0 view .LVU3
  43 0008 0020     		movs	r0, #0
  44 000a 08BD     		pop	{r3, pc}
  45              		.cfi_endproc
  46              	.LFE235:
  48              		.section	.text.front_2_cb,"ax",%progbits
ARM GAS  /tmp/ccjqiUOA.s 			page 2


  49              		.align	1
  50              		.global	front_2_cb
  51              		.syntax unified
  52              		.thumb
  53              		.thumb_func
  55              	front_2_cb:
  56              	.LFB236:
  12:Core/Src/can_send_timebase.c **** 
  13:Core/Src/can_send_timebase.c **** STMLIBS_StatusTypeDef front_2_cb(void)
  14:Core/Src/can_send_timebase.c **** {
  57              		.loc 1 14 1 is_stmt 1 view -0
  58              		.cfi_startproc
  59              		@ args = 0, pretend = 0, frame = 0
  60              		@ frame_needed = 0, uses_anonymous_args = 0
  61 0000 08B5     		push	{r3, lr}
  62              		.cfi_def_cfa_offset 8
  63              		.cfi_offset 3, -8
  64              		.cfi_offset 14, -4
  15:Core/Src/can_send_timebase.c ****     can_send_msg(SC22_EVO_CANLV_SENS_FRONT_2_FRAME_ID);
  65              		.loc 1 15 5 view .LVU5
  66 0002 1020     		movs	r0, #16
  67 0004 FFF7FEFF 		bl	can_send_msg
  68              	.LVL1:
  16:Core/Src/can_send_timebase.c ****     return STMLIBS_OK;
  69              		.loc 1 16 5 view .LVU6
  17:Core/Src/can_send_timebase.c **** }
  70              		.loc 1 17 1 is_stmt 0 view .LVU7
  71 0008 0020     		movs	r0, #0
  72 000a 08BD     		pop	{r3, pc}
  73              		.cfi_endproc
  74              	.LFE236:
  76              		.section	.text.front_3_cb,"ax",%progbits
  77              		.align	1
  78              		.global	front_3_cb
  79              		.syntax unified
  80              		.thumb
  81              		.thumb_func
  83              	front_3_cb:
  84              	.LFB237:
  18:Core/Src/can_send_timebase.c **** 
  19:Core/Src/can_send_timebase.c **** STMLIBS_StatusTypeDef front_3_cb(void)
  20:Core/Src/can_send_timebase.c **** {
  85              		.loc 1 20 1 is_stmt 1 view -0
  86              		.cfi_startproc
  87              		@ args = 0, pretend = 0, frame = 0
  88              		@ frame_needed = 0, uses_anonymous_args = 0
  89 0000 08B5     		push	{r3, lr}
  90              		.cfi_def_cfa_offset 8
  91              		.cfi_offset 3, -8
  92              		.cfi_offset 14, -4
  21:Core/Src/can_send_timebase.c ****     can_send_msg(SC22_EVO_CANLV_SENS_FRONT_3_FRAME_ID);
  93              		.loc 1 21 5 view .LVU9
  94 0002 4FF49070 		mov	r0, #288
  95 0006 FFF7FEFF 		bl	can_send_msg
  96              	.LVL2:
  22:Core/Src/can_send_timebase.c ****     return STMLIBS_OK;
  97              		.loc 1 22 5 view .LVU10
ARM GAS  /tmp/ccjqiUOA.s 			page 3


  23:Core/Src/can_send_timebase.c **** }
  98              		.loc 1 23 1 is_stmt 0 view .LVU11
  99 000a 0020     		movs	r0, #0
 100 000c 08BD     		pop	{r3, pc}
 101              		.cfi_endproc
 102              	.LFE237:
 104              		.section	.text.front_ntc_cb,"ax",%progbits
 105              		.align	1
 106              		.global	front_ntc_cb
 107              		.syntax unified
 108              		.thumb
 109              		.thumb_func
 111              	front_ntc_cb:
 112              	.LFB238:
  24:Core/Src/can_send_timebase.c **** 
  25:Core/Src/can_send_timebase.c **** STMLIBS_StatusTypeDef front_ntc_cb(void)
  26:Core/Src/can_send_timebase.c **** {
 113              		.loc 1 26 1 is_stmt 1 view -0
 114              		.cfi_startproc
 115              		@ args = 0, pretend = 0, frame = 0
 116              		@ frame_needed = 0, uses_anonymous_args = 0
 117 0000 08B5     		push	{r3, lr}
 118              		.cfi_def_cfa_offset 8
 119              		.cfi_offset 3, -8
 120              		.cfi_offset 14, -4
  27:Core/Src/can_send_timebase.c ****     can_send_msg(SC22_EVO_CANLV_SENS_FRONT_NTC_FRAME_ID);
 121              		.loc 1 27 5 view .LVU13
 122 0002 4FF48060 		mov	r0, #1024
 123 0006 FFF7FEFF 		bl	can_send_msg
 124              	.LVL3:
  28:Core/Src/can_send_timebase.c ****     return STMLIBS_OK;
 125              		.loc 1 28 5 view .LVU14
  29:Core/Src/can_send_timebase.c **** }
 126              		.loc 1 29 1 is_stmt 0 view .LVU15
 127 000a 0020     		movs	r0, #0
 128 000c 08BD     		pop	{r3, pc}
 129              		.cfi_endproc
 130              	.LFE238:
 132              		.section	.text.front_sd_status_cb,"ax",%progbits
 133              		.align	1
 134              		.global	front_sd_status_cb
 135              		.syntax unified
 136              		.thumb
 137              		.thumb_func
 139              	front_sd_status_cb:
 140              	.LFB239:
  30:Core/Src/can_send_timebase.c **** 
  31:Core/Src/can_send_timebase.c **** STMLIBS_StatusTypeDef front_sd_status_cb(void)
  32:Core/Src/can_send_timebase.c **** {
 141              		.loc 1 32 1 is_stmt 1 view -0
 142              		.cfi_startproc
 143              		@ args = 0, pretend = 0, frame = 0
 144              		@ frame_needed = 0, uses_anonymous_args = 0
 145 0000 08B5     		push	{r3, lr}
 146              		.cfi_def_cfa_offset 8
 147              		.cfi_offset 3, -8
 148              		.cfi_offset 14, -4
ARM GAS  /tmp/ccjqiUOA.s 			page 4


  33:Core/Src/can_send_timebase.c ****     can_send_msg(SC22_EVO_CANLV_SENS_FRONT_SHUTDOWN_STATUS_FRAME_ID);
 149              		.loc 1 33 5 view .LVU17
 150 0002 3120     		movs	r0, #49
 151 0004 FFF7FEFF 		bl	can_send_msg
 152              	.LVL4:
  34:Core/Src/can_send_timebase.c ****     return STMLIBS_OK;
 153              		.loc 1 34 5 view .LVU18
  35:Core/Src/can_send_timebase.c **** }
 154              		.loc 1 35 1 is_stmt 0 view .LVU19
 155 0008 0020     		movs	r0, #0
 156 000a 08BD     		pop	{r3, pc}
 157              		.cfi_endproc
 158              	.LFE239:
 160              		.section	.text.rear_1_cb,"ax",%progbits
 161              		.align	1
 162              		.global	rear_1_cb
 163              		.syntax unified
 164              		.thumb
 165              		.thumb_func
 167              	rear_1_cb:
 168              	.LFB240:
  36:Core/Src/can_send_timebase.c **** 
  37:Core/Src/can_send_timebase.c **** STMLIBS_StatusTypeDef rear_1_cb(void)
  38:Core/Src/can_send_timebase.c **** {
 169              		.loc 1 38 1 is_stmt 1 view -0
 170              		.cfi_startproc
 171              		@ args = 0, pretend = 0, frame = 0
 172              		@ frame_needed = 0, uses_anonymous_args = 0
 173 0000 08B5     		push	{r3, lr}
 174              		.cfi_def_cfa_offset 8
 175              		.cfi_offset 3, -8
 176              		.cfi_offset 14, -4
  39:Core/Src/can_send_timebase.c ****     can_send_msg(SC22_EVO_CANLV_SENS_REAR_1_FRAME_ID);
 177              		.loc 1 39 5 view .LVU21
 178 0002 1120     		movs	r0, #17
 179 0004 FFF7FEFF 		bl	can_send_msg
 180              	.LVL5:
  40:Core/Src/can_send_timebase.c ****     return STMLIBS_OK;
 181              		.loc 1 40 5 view .LVU22
  41:Core/Src/can_send_timebase.c **** }
 182              		.loc 1 41 1 is_stmt 0 view .LVU23
 183 0008 0020     		movs	r0, #0
 184 000a 08BD     		pop	{r3, pc}
 185              		.cfi_endproc
 186              	.LFE240:
 188              		.section	.text.rear_2_cb,"ax",%progbits
 189              		.align	1
 190              		.global	rear_2_cb
 191              		.syntax unified
 192              		.thumb
 193              		.thumb_func
 195              	rear_2_cb:
 196              	.LFB241:
  42:Core/Src/can_send_timebase.c **** 
  43:Core/Src/can_send_timebase.c **** STMLIBS_StatusTypeDef rear_2_cb(void)
  44:Core/Src/can_send_timebase.c **** {
 197              		.loc 1 44 1 is_stmt 1 view -0
ARM GAS  /tmp/ccjqiUOA.s 			page 5


 198              		.cfi_startproc
 199              		@ args = 0, pretend = 0, frame = 0
 200              		@ frame_needed = 0, uses_anonymous_args = 0
 201 0000 08B5     		push	{r3, lr}
 202              		.cfi_def_cfa_offset 8
 203              		.cfi_offset 3, -8
 204              		.cfi_offset 14, -4
  45:Core/Src/can_send_timebase.c ****     can_send_msg(SC22_EVO_CANLV_SENS_REAR_2_FRAME_ID);
 205              		.loc 1 45 5 view .LVU25
 206 0002 40F20240 		movw	r0, #1026
 207 0006 FFF7FEFF 		bl	can_send_msg
 208              	.LVL6:
  46:Core/Src/can_send_timebase.c ****     return STMLIBS_OK;
 209              		.loc 1 46 5 view .LVU26
  47:Core/Src/can_send_timebase.c **** }
 210              		.loc 1 47 1 is_stmt 0 view .LVU27
 211 000a 0020     		movs	r0, #0
 212 000c 08BD     		pop	{r3, pc}
 213              		.cfi_endproc
 214              	.LFE241:
 216              		.section	.text.rear_3_cb,"ax",%progbits
 217              		.align	1
 218              		.global	rear_3_cb
 219              		.syntax unified
 220              		.thumb
 221              		.thumb_func
 223              	rear_3_cb:
 224              	.LFB242:
  48:Core/Src/can_send_timebase.c **** 
  49:Core/Src/can_send_timebase.c **** STMLIBS_StatusTypeDef rear_3_cb(void)
  50:Core/Src/can_send_timebase.c **** {
 225              		.loc 1 50 1 is_stmt 1 view -0
 226              		.cfi_startproc
 227              		@ args = 0, pretend = 0, frame = 0
 228              		@ frame_needed = 0, uses_anonymous_args = 0
 229 0000 08B5     		push	{r3, lr}
 230              		.cfi_def_cfa_offset 8
 231              		.cfi_offset 3, -8
 232              		.cfi_offset 14, -4
  51:Core/Src/can_send_timebase.c ****     can_send_msg(SC22_EVO_CANLV_SENS_REAR_3_FRAME_ID);
 233              		.loc 1 51 5 view .LVU29
 234 0002 40F22110 		movw	r0, #289
 235 0006 FFF7FEFF 		bl	can_send_msg
 236              	.LVL7:
  52:Core/Src/can_send_timebase.c ****     return STMLIBS_OK;
 237              		.loc 1 52 5 view .LVU30
  53:Core/Src/can_send_timebase.c **** }
 238              		.loc 1 53 1 is_stmt 0 view .LVU31
 239 000a 0020     		movs	r0, #0
 240 000c 08BD     		pop	{r3, pc}
 241              		.cfi_endproc
 242              	.LFE242:
 244              		.section	.text.rear_ntc_cb,"ax",%progbits
 245              		.align	1
 246              		.global	rear_ntc_cb
 247              		.syntax unified
 248              		.thumb
ARM GAS  /tmp/ccjqiUOA.s 			page 6


 249              		.thumb_func
 251              	rear_ntc_cb:
 252              	.LFB243:
  54:Core/Src/can_send_timebase.c **** 
  55:Core/Src/can_send_timebase.c **** STMLIBS_StatusTypeDef rear_ntc_cb(void)
  56:Core/Src/can_send_timebase.c **** {
 253              		.loc 1 56 1 is_stmt 1 view -0
 254              		.cfi_startproc
 255              		@ args = 0, pretend = 0, frame = 0
 256              		@ frame_needed = 0, uses_anonymous_args = 0
 257 0000 08B5     		push	{r3, lr}
 258              		.cfi_def_cfa_offset 8
 259              		.cfi_offset 3, -8
 260              		.cfi_offset 14, -4
  57:Core/Src/can_send_timebase.c ****     can_send_msg(SC22_EVO_CANLV_SENS_REAR_NTC_FRAME_ID);
 261              		.loc 1 57 5 view .LVU33
 262 0002 40F20140 		movw	r0, #1025
 263 0006 FFF7FEFF 		bl	can_send_msg
 264              	.LVL8:
  58:Core/Src/can_send_timebase.c ****     return STMLIBS_OK;
 265              		.loc 1 58 5 view .LVU34
  59:Core/Src/can_send_timebase.c **** }
 266              		.loc 1 59 1 is_stmt 0 view .LVU35
 267 000a 0020     		movs	r0, #0
 268 000c 08BD     		pop	{r3, pc}
 269              		.cfi_endproc
 270              	.LFE243:
 272              		.section	.text.rear_sd_status_cb,"ax",%progbits
 273              		.align	1
 274              		.global	rear_sd_status_cb
 275              		.syntax unified
 276              		.thumb
 277              		.thumb_func
 279              	rear_sd_status_cb:
 280              	.LFB244:
  60:Core/Src/can_send_timebase.c **** 
  61:Core/Src/can_send_timebase.c **** STMLIBS_StatusTypeDef rear_sd_status_cb(void)
  62:Core/Src/can_send_timebase.c **** {
 281              		.loc 1 62 1 is_stmt 1 view -0
 282              		.cfi_startproc
 283              		@ args = 0, pretend = 0, frame = 0
 284              		@ frame_needed = 0, uses_anonymous_args = 0
 285 0000 08B5     		push	{r3, lr}
 286              		.cfi_def_cfa_offset 8
 287              		.cfi_offset 3, -8
 288              		.cfi_offset 14, -4
  63:Core/Src/can_send_timebase.c ****     can_send_msg(SC22_EVO_CANLV_SENS_REAR_SHUTDOWN_STATUS_FRAME_ID);
 289              		.loc 1 63 5 view .LVU37
 290 0002 3020     		movs	r0, #48
 291 0004 FFF7FEFF 		bl	can_send_msg
 292              	.LVL9:
  64:Core/Src/can_send_timebase.c ****     return STMLIBS_OK;
 293              		.loc 1 64 5 view .LVU38
  65:Core/Src/can_send_timebase.c **** }
 294              		.loc 1 65 1 is_stmt 0 view .LVU39
 295 0008 0020     		movs	r0, #0
 296 000a 08BD     		pop	{r3, pc}
ARM GAS  /tmp/ccjqiUOA.s 			page 7


 297              		.cfi_endproc
 298              	.LFE244:
 300              		.section	.text.can_send_timebase_init,"ax",%progbits
 301              		.align	1
 302              		.global	can_send_timebase_init
 303              		.syntax unified
 304              		.thumb
 305              		.thumb_func
 307              	can_send_timebase_init:
 308              	.LFB245:
  66:Core/Src/can_send_timebase.c **** 
  67:Core/Src/can_send_timebase.c **** void can_send_timebase_init(void)
  68:Core/Src/can_send_timebase.c **** {
 309              		.loc 1 68 1 is_stmt 1 view -0
 310              		.cfi_startproc
 311              		@ args = 0, pretend = 0, frame = 8
 312              		@ frame_needed = 0, uses_anonymous_args = 0
 313 0000 10B5     		push	{r4, lr}
 314              		.cfi_def_cfa_offset 8
 315              		.cfi_offset 4, -8
 316              		.cfi_offset 14, -4
 317 0002 82B0     		sub	sp, sp, #8
 318              		.cfi_def_cfa_offset 16
  69:Core/Src/can_send_timebase.c ****     uint8_t interval;
 319              		.loc 1 69 5 view .LVU41
  70:Core/Src/can_send_timebase.c **** 
  71:Core/Src/can_send_timebase.c ****     TIMEBASE_init(&can_send_timebase_handle, &htim6, 20000);
 320              		.loc 1 71 5 view .LVU42
 321 0004 294C     		ldr	r4, .L26
 322 0006 44F62062 		movw	r2, #20000
 323 000a 2949     		ldr	r1, .L26+4
 324 000c 2046     		mov	r0, r4
 325 000e FFF7FEFF 		bl	TIMEBASE_init
 326              	.LVL10:
  72:Core/Src/can_send_timebase.c **** 
  73:Core/Src/can_send_timebase.c ****     TIMEBASE_add_interval(&can_send_timebase_handle, 20000, &interval);
 327              		.loc 1 73 5 view .LVU43
 328 0012 0DF10702 		add	r2, sp, #7
 329 0016 44F62061 		movw	r1, #20000
 330 001a 2046     		mov	r0, r4
 331 001c FFF7FEFF 		bl	TIMEBASE_add_interval
 332              	.LVL11:
  74:Core/Src/can_send_timebase.c ****     if (UTILS_GET_SENS_TYPE() == SENSE_TYPE_REAR)
 333              		.loc 1 74 5 view .LVU44
 334              		.loc 1 74 9 is_stmt 0 view .LVU45
 335 0020 1021     		movs	r1, #16
 336 0022 2448     		ldr	r0, .L26+8
 337 0024 FFF7FEFF 		bl	HAL_GPIO_ReadPin
 338              	.LVL12:
 339              		.loc 1 74 8 discriminator 1 view .LVU46
 340 0028 0128     		cmp	r0, #1
 341 002a 20D0     		beq	.L25
  75:Core/Src/can_send_timebase.c ****     {
  76:Core/Src/can_send_timebase.c ****         TIMEBASE_register_callback(&can_send_timebase_handle, interval, rear_1_cb);
  77:Core/Src/can_send_timebase.c ****         TIMEBASE_register_callback(&can_send_timebase_handle, interval, rear_2_cb);
  78:Core/Src/can_send_timebase.c ****         TIMEBASE_register_callback(&can_send_timebase_handle, interval, rear_3_cb);
  79:Core/Src/can_send_timebase.c ****         TIMEBASE_register_callback(&can_send_timebase_handle, interval, rear_ntc_cb);
ARM GAS  /tmp/ccjqiUOA.s 			page 8


  80:Core/Src/can_send_timebase.c ****         TIMEBASE_register_callback(&can_send_timebase_handle, interval, rear_sd_status_cb);
  81:Core/Src/can_send_timebase.c ****     }
  82:Core/Src/can_send_timebase.c ****     else
  83:Core/Src/can_send_timebase.c ****     {
  84:Core/Src/can_send_timebase.c ****         TIMEBASE_register_callback(&can_send_timebase_handle, interval, front_1_cb);
 342              		.loc 1 84 9 is_stmt 1 view .LVU47
 343 002c 1F4C     		ldr	r4, .L26
 344 002e 224A     		ldr	r2, .L26+12
 345 0030 9DF80710 		ldrb	r1, [sp, #7]	@ zero_extendqisi2
 346 0034 2046     		mov	r0, r4
 347 0036 FFF7FEFF 		bl	TIMEBASE_register_callback
 348              	.LVL13:
  85:Core/Src/can_send_timebase.c ****         TIMEBASE_register_callback(&can_send_timebase_handle, interval, front_2_cb);
 349              		.loc 1 85 9 view .LVU48
 350 003a 204A     		ldr	r2, .L26+16
 351 003c 9DF80710 		ldrb	r1, [sp, #7]	@ zero_extendqisi2
 352 0040 2046     		mov	r0, r4
 353 0042 FFF7FEFF 		bl	TIMEBASE_register_callback
 354              	.LVL14:
  86:Core/Src/can_send_timebase.c ****         TIMEBASE_register_callback(&can_send_timebase_handle, interval, front_3_cb);
 355              		.loc 1 86 9 view .LVU49
 356 0046 1E4A     		ldr	r2, .L26+20
 357 0048 9DF80710 		ldrb	r1, [sp, #7]	@ zero_extendqisi2
 358 004c 2046     		mov	r0, r4
 359 004e FFF7FEFF 		bl	TIMEBASE_register_callback
 360              	.LVL15:
  87:Core/Src/can_send_timebase.c ****         TIMEBASE_register_callback(&can_send_timebase_handle, interval, front_ntc_cb);
 361              		.loc 1 87 9 view .LVU50
 362 0052 1C4A     		ldr	r2, .L26+24
 363 0054 9DF80710 		ldrb	r1, [sp, #7]	@ zero_extendqisi2
 364 0058 2046     		mov	r0, r4
 365 005a FFF7FEFF 		bl	TIMEBASE_register_callback
 366              	.LVL16:
  88:Core/Src/can_send_timebase.c ****         TIMEBASE_register_callback(&can_send_timebase_handle, interval, front_sd_status_cb);
 367              		.loc 1 88 9 view .LVU51
 368 005e 1A4A     		ldr	r2, .L26+28
 369 0060 9DF80710 		ldrb	r1, [sp, #7]	@ zero_extendqisi2
 370 0064 2046     		mov	r0, r4
 371 0066 FFF7FEFF 		bl	TIMEBASE_register_callback
 372              	.LVL17:
 373              	.L21:
  89:Core/Src/can_send_timebase.c ****     }
  90:Core/Src/can_send_timebase.c **** }
 374              		.loc 1 90 1 is_stmt 0 view .LVU52
 375 006a 02B0     		add	sp, sp, #8
 376              		.cfi_remember_state
 377              		.cfi_def_cfa_offset 8
 378              		@ sp needed
 379 006c 10BD     		pop	{r4, pc}
 380              	.L25:
 381              		.cfi_restore_state
  76:Core/Src/can_send_timebase.c ****         TIMEBASE_register_callback(&can_send_timebase_handle, interval, rear_2_cb);
 382              		.loc 1 76 9 is_stmt 1 view .LVU53
 383 006e 174A     		ldr	r2, .L26+32
 384 0070 9DF80710 		ldrb	r1, [sp, #7]	@ zero_extendqisi2
 385 0074 2046     		mov	r0, r4
 386 0076 FFF7FEFF 		bl	TIMEBASE_register_callback
ARM GAS  /tmp/ccjqiUOA.s 			page 9


 387              	.LVL18:
  77:Core/Src/can_send_timebase.c ****         TIMEBASE_register_callback(&can_send_timebase_handle, interval, rear_3_cb);
 388              		.loc 1 77 9 view .LVU54
 389 007a 154A     		ldr	r2, .L26+36
 390 007c 9DF80710 		ldrb	r1, [sp, #7]	@ zero_extendqisi2
 391 0080 2046     		mov	r0, r4
 392 0082 FFF7FEFF 		bl	TIMEBASE_register_callback
 393              	.LVL19:
  78:Core/Src/can_send_timebase.c ****         TIMEBASE_register_callback(&can_send_timebase_handle, interval, rear_ntc_cb);
 394              		.loc 1 78 9 view .LVU55
 395 0086 134A     		ldr	r2, .L26+40
 396 0088 9DF80710 		ldrb	r1, [sp, #7]	@ zero_extendqisi2
 397 008c 2046     		mov	r0, r4
 398 008e FFF7FEFF 		bl	TIMEBASE_register_callback
 399              	.LVL20:
  79:Core/Src/can_send_timebase.c ****         TIMEBASE_register_callback(&can_send_timebase_handle, interval, rear_sd_status_cb);
 400              		.loc 1 79 9 view .LVU56
 401 0092 114A     		ldr	r2, .L26+44
 402 0094 9DF80710 		ldrb	r1, [sp, #7]	@ zero_extendqisi2
 403 0098 2046     		mov	r0, r4
 404 009a FFF7FEFF 		bl	TIMEBASE_register_callback
 405              	.LVL21:
  80:Core/Src/can_send_timebase.c ****     }
 406              		.loc 1 80 9 view .LVU57
 407 009e 0F4A     		ldr	r2, .L26+48
 408 00a0 9DF80710 		ldrb	r1, [sp, #7]	@ zero_extendqisi2
 409 00a4 2046     		mov	r0, r4
 410 00a6 FFF7FEFF 		bl	TIMEBASE_register_callback
 411              	.LVL22:
 412 00aa DEE7     		b	.L21
 413              	.L27:
 414              		.align	2
 415              	.L26:
 416 00ac 00000000 		.word	can_send_timebase_handle
 417 00b0 00000000 		.word	htim6
 418 00b4 00040240 		.word	1073873920
 419 00b8 00000000 		.word	front_1_cb
 420 00bc 00000000 		.word	front_2_cb
 421 00c0 00000000 		.word	front_3_cb
 422 00c4 00000000 		.word	front_ntc_cb
 423 00c8 00000000 		.word	front_sd_status_cb
 424 00cc 00000000 		.word	rear_1_cb
 425 00d0 00000000 		.word	rear_2_cb
 426 00d4 00000000 		.word	rear_3_cb
 427 00d8 00000000 		.word	rear_ntc_cb
 428 00dc 00000000 		.word	rear_sd_status_cb
 429              		.cfi_endproc
 430              	.LFE245:
 432              		.section	.text.can_send_timebase_routine,"ax",%progbits
 433              		.align	1
 434              		.global	can_send_timebase_routine
 435              		.syntax unified
 436              		.thumb
 437              		.thumb_func
 439              	can_send_timebase_routine:
 440              	.LFB246:
  91:Core/Src/can_send_timebase.c **** 
ARM GAS  /tmp/ccjqiUOA.s 			page 10


  92:Core/Src/can_send_timebase.c **** void can_send_timebase_routine(void)
  93:Core/Src/can_send_timebase.c **** {
 441              		.loc 1 93 1 view -0
 442              		.cfi_startproc
 443              		@ args = 0, pretend = 0, frame = 0
 444              		@ frame_needed = 0, uses_anonymous_args = 0
 445 0000 08B5     		push	{r3, lr}
 446              		.cfi_def_cfa_offset 8
 447              		.cfi_offset 3, -8
 448              		.cfi_offset 14, -4
  94:Core/Src/can_send_timebase.c ****     TIMEBASE_routine(&can_send_timebase_handle);
 449              		.loc 1 94 5 view .LVU59
 450 0002 0248     		ldr	r0, .L30
 451 0004 FFF7FEFF 		bl	TIMEBASE_routine
 452              	.LVL23:
  95:Core/Src/can_send_timebase.c **** }
 453              		.loc 1 95 1 is_stmt 0 view .LVU60
 454 0008 08BD     		pop	{r3, pc}
 455              	.L31:
 456 000a 00BF     		.align	2
 457              	.L30:
 458 000c 00000000 		.word	can_send_timebase_handle
 459              		.cfi_endproc
 460              	.LFE246:
 462              		.section	.text.can_send_timebase_timerElapsed_irq,"ax",%progbits
 463              		.align	1
 464              		.global	can_send_timebase_timerElapsed_irq
 465              		.syntax unified
 466              		.thumb
 467              		.thumb_func
 469              	can_send_timebase_timerElapsed_irq:
 470              	.LVL24:
 471              	.LFB247:
  96:Core/Src/can_send_timebase.c **** 
  97:Core/Src/can_send_timebase.c **** void can_send_timebase_timerElapsed_irq(TIM_HandleTypeDef *htim)
  98:Core/Src/can_send_timebase.c **** {
 472              		.loc 1 98 1 is_stmt 1 view -0
 473              		.cfi_startproc
 474              		@ args = 0, pretend = 0, frame = 0
 475              		@ frame_needed = 0, uses_anonymous_args = 0
 476              		.loc 1 98 1 is_stmt 0 view .LVU62
 477 0000 08B5     		push	{r3, lr}
 478              		.cfi_def_cfa_offset 8
 479              		.cfi_offset 3, -8
 480              		.cfi_offset 14, -4
 481 0002 0146     		mov	r1, r0
  99:Core/Src/can_send_timebase.c ****     TIMEBASE_TimerElapsedCallback(&can_send_timebase_handle, htim);
 482              		.loc 1 99 5 is_stmt 1 view .LVU63
 483 0004 0148     		ldr	r0, .L34
 484              	.LVL25:
 485              		.loc 1 99 5 is_stmt 0 view .LVU64
 486 0006 FFF7FEFF 		bl	TIMEBASE_TimerElapsedCallback
 487              	.LVL26:
 100:Core/Src/can_send_timebase.c **** }...
 488              		.loc 1 100 1 view .LVU65
 489 000a 08BD     		pop	{r3, pc}
 490              	.L35:
ARM GAS  /tmp/ccjqiUOA.s 			page 11


 491              		.align	2
 492              	.L34:
 493 000c 00000000 		.word	can_send_timebase_handle
 494              		.cfi_endproc
 495              	.LFE247:
 497              		.global	can_send_timebase_handle
 498              		.section	.bss.can_send_timebase_handle,"aw",%nobits
 499              		.align	2
 502              	can_send_timebase_handle:
 503 0000 00000000 		.space	2324
 503      00000000 
 503      00000000 
 503      00000000 
 503      00000000 
 504              		.text
 505              	.Letext0:
 506              		.file 2 "/usr/arm-none-eabi/include/machine/_default_types.h"
 507              		.file 3 "/usr/arm-none-eabi/include/sys/_stdint.h"
 508              		.file 4 "Drivers/CMSIS/Device/ST/STM32F4xx/Include/stm32f446xx.h"
 509              		.file 5 "Drivers/STM32F4xx_HAL_Driver/Inc/stm32f4xx_hal_def.h"
 510              		.file 6 "Drivers/STM32F4xx_HAL_Driver/Inc/stm32f4xx_hal_gpio.h"
 511              		.file 7 "Drivers/STM32F4xx_HAL_Driver/Inc/stm32f4xx_hal_dma.h"
 512              		.file 8 "Drivers/STM32F4xx_HAL_Driver/Inc/stm32f4xx_hal_tim.h"
 513              		.file 9 "Lib/stmlibs/stmlibs_status.h"
 514              		.file 10 "Lib/stmlibs/timebase/timebase.h"
 515              		.file 11 "Core/Inc/tim.h"
 516              		.file 12 "Core/Inc/can_utils.h"
ARM GAS  /tmp/ccjqiUOA.s 			page 12

