ARM GAS  /tmp/ccJHnlq5.s 			page 1


   1              		.cpu cortex-m4
   2              		.arch armv7e-m
   3              		.fpu fpv4-sp-d16
   4              		.eabi_attribute 27, 1
   5              		.eabi_attribute 28, 1
   6              		.eabi_attribute 20, 1
   7              		.eabi_attribute 21, 1
   8              		.eabi_attribute 23, 3
   9              		.eabi_attribute 24, 1
  10              		.eabi_attribute 25, 1
  11              		.eabi_attribute 26, 1
  12              		.eabi_attribute 30, 1
  13              		.eabi_attribute 34, 1
  14              		.eabi_attribute 18, 4
  15              		.file	"logger_wrapper.c"
  16              		.text
  17              	.Ltext0:
  18              		.cfi_sections	.debug_frame
  19              		.file 1 "Core/Src/logger_wrapper.c"
  20              		.section	.text.logger_flush,"ax",%progbits
  21              		.align	1
  22              		.global	logger_flush
  23              		.syntax unified
  24              		.thumb
  25              		.thumb_func
  27              	logger_flush:
  28              	.LVL0:
  29              	.LFB235:
   1:Core/Src/logger_wrapper.c **** #include "logger_wrapper.h"
   2:Core/Src/logger_wrapper.c **** #include "usart.h"
   3:Core/Src/logger_wrapper.c **** 
   4:Core/Src/logger_wrapper.c **** char logger_buffer[LOGGER_BUF_LEN];
   5:Core/Src/logger_wrapper.c **** LOGGER_HandleTypeDef logger_handle;
   6:Core/Src/logger_wrapper.c **** 
   7:Core/Src/logger_wrapper.c **** STMLIBS_StatusTypeDef logger_flush(char *buffer, uint32_t size) {
  30              		.loc 1 7 65 view -0
  31              		.cfi_startproc
  32              		@ args = 0, pretend = 0, frame = 0
  33              		@ frame_needed = 0, uses_anonymous_args = 0
  34              		.loc 1 7 65 is_stmt 0 view .LVU1
  35 0000 08B5     		push	{r3, lr}
  36              		.cfi_def_cfa_offset 8
  37              		.cfi_offset 3, -8
  38              		.cfi_offset 14, -4
   8:Core/Src/logger_wrapper.c ****     if(huart1.gState != HAL_UART_STATE_READY)
  39              		.loc 1 8 5 is_stmt 1 view .LVU2
  40              		.loc 1 8 14 is_stmt 0 view .LVU3
  41 0002 074B     		ldr	r3, .L6
  42 0004 93F83D30 		ldrb	r3, [r3, #61]	@ zero_extendqisi2
  43 0008 DBB2     		uxtb	r3, r3
  44              		.loc 1 8 7 view .LVU4
  45 000a 202B     		cmp	r3, #32
  46 000c 01D0     		beq	.L5
   9:Core/Src/logger_wrapper.c ****         return STMLIBS_BUSY;
  47              		.loc 1 9 16 view .LVU5
  48 000e 0220     		movs	r0, #2
  49              	.LVL1:
ARM GAS  /tmp/ccJHnlq5.s 			page 2


  50              	.L2:
  10:Core/Src/logger_wrapper.c **** 
  11:Core/Src/logger_wrapper.c ****     HAL_UART_Transmit_IT(&huart1, (uint8_t*)buffer, size);
  12:Core/Src/logger_wrapper.c ****     return STMLIBS_OK;
  13:Core/Src/logger_wrapper.c **** }
  51              		.loc 1 13 1 view .LVU6
  52 0010 08BD     		pop	{r3, pc}
  53              	.LVL2:
  54              	.L5:
  11:Core/Src/logger_wrapper.c ****     return STMLIBS_OK;
  55              		.loc 1 11 5 is_stmt 1 view .LVU7
  56 0012 8AB2     		uxth	r2, r1
  57 0014 0146     		mov	r1, r0
  58              	.LVL3:
  11:Core/Src/logger_wrapper.c ****     return STMLIBS_OK;
  59              		.loc 1 11 5 is_stmt 0 view .LVU8
  60 0016 0248     		ldr	r0, .L6
  61              	.LVL4:
  11:Core/Src/logger_wrapper.c ****     return STMLIBS_OK;
  62              		.loc 1 11 5 view .LVU9
  63 0018 FFF7FEFF 		bl	HAL_UART_Transmit_IT
  64              	.LVL5:
  12:Core/Src/logger_wrapper.c **** }
  65              		.loc 1 12 5 is_stmt 1 view .LVU10
  12:Core/Src/logger_wrapper.c **** }
  66              		.loc 1 12 12 is_stmt 0 view .LVU11
  67 001c 0020     		movs	r0, #0
  68 001e F7E7     		b	.L2
  69              	.L7:
  70              		.align	2
  71              	.L6:
  72 0020 00000000 		.word	huart1
  73              		.cfi_endproc
  74              	.LFE235:
  76              		.section	.text.logger_init,"ax",%progbits
  77              		.align	1
  78              		.global	logger_init
  79              		.syntax unified
  80              		.thumb
  81              		.thumb_func
  83              	logger_init:
  84              	.LFB236:
  14:Core/Src/logger_wrapper.c **** 
  15:Core/Src/logger_wrapper.c **** void logger_init(void) {
  85              		.loc 1 15 24 is_stmt 1 view -0
  86              		.cfi_startproc
  87              		@ args = 0, pretend = 0, frame = 0
  88              		@ frame_needed = 0, uses_anonymous_args = 0
  89 0000 08B5     		push	{r3, lr}
  90              		.cfi_def_cfa_offset 8
  91              		.cfi_offset 3, -8
  92              		.cfi_offset 14, -4
  16:Core/Src/logger_wrapper.c ****     LOGGER_init(&logger_handle, logger_buffer, LOGGER_BUF_LEN, logger_flush);
  93              		.loc 1 16 5 view .LVU13
  94 0002 044B     		ldr	r3, .L10
  95 0004 4FF48052 		mov	r2, #4096
  96 0008 0349     		ldr	r1, .L10+4
ARM GAS  /tmp/ccJHnlq5.s 			page 3


  97 000a 0448     		ldr	r0, .L10+8
  98 000c FFF7FEFF 		bl	LOGGER_init
  99              	.LVL6:
  17:Core/Src/logger_wrapper.c **** }
 100              		.loc 1 17 1 is_stmt 0 view .LVU14
 101 0010 08BD     		pop	{r3, pc}
 102              	.L11:
 103 0012 00BF     		.align	2
 104              	.L10:
 105 0014 00000000 		.word	logger_flush
 106 0018 00000000 		.word	logger_buffer
 107 001c 00000000 		.word	logger_handle
 108              		.cfi_endproc
 109              	.LFE236:
 111              		.section	.text.logger_routine,"ax",%progbits
 112              		.align	1
 113              		.global	logger_routine
 114              		.syntax unified
 115              		.thumb
 116              		.thumb_func
 118              	logger_routine:
 119              	.LFB237:
  18:Core/Src/logger_wrapper.c **** 
  19:Core/Src/logger_wrapper.c **** void logger_routine(void) {
 120              		.loc 1 19 27 is_stmt 1 view -0
 121              		.cfi_startproc
 122              		@ args = 0, pretend = 0, frame = 0
 123              		@ frame_needed = 0, uses_anonymous_args = 0
 124 0000 08B5     		push	{r3, lr}
 125              		.cfi_def_cfa_offset 8
 126              		.cfi_offset 3, -8
 127              		.cfi_offset 14, -4
  20:Core/Src/logger_wrapper.c ****     LOGGER_flush(&logger_handle);
 128              		.loc 1 20 5 view .LVU16
 129 0002 0248     		ldr	r0, .L14
 130 0004 FFF7FEFF 		bl	LOGGER_flush
 131              	.LVL7:
  21:Core/Src/logger_wrapper.c **** }...
 132              		.loc 1 21 1 is_stmt 0 view .LVU17
 133 0008 08BD     		pop	{r3, pc}
 134              	.L15:
 135 000a 00BF     		.align	2
 136              	.L14:
 137 000c 00000000 		.word	logger_handle
 138              		.cfi_endproc
 139              	.LFE237:
 141              		.global	logger_handle
 142              		.section	.bss.logger_handle,"aw",%nobits
 143              		.align	2
 146              	logger_handle:
 147 0000 00000000 		.space	16
 147      00000000 
 147      00000000 
 147      00000000 
 148              		.global	logger_buffer
 149              		.section	.bss.logger_buffer,"aw",%nobits
 150              		.align	2
ARM GAS  /tmp/ccJHnlq5.s 			page 4


 153              	logger_buffer:
 154 0000 00000000 		.space	4096
 154      00000000 
 154      00000000 
 154      00000000 
 154      00000000 
 155              		.text
 156              	.Letext0:
 157              		.file 2 "/usr/arm-none-eabi/include/machine/_default_types.h"
 158              		.file 3 "/usr/arm-none-eabi/include/sys/_stdint.h"
 159              		.file 4 "Drivers/CMSIS/Device/ST/STM32F4xx/Include/stm32f446xx.h"
 160              		.file 5 "Drivers/STM32F4xx_HAL_Driver/Inc/stm32f4xx_hal_def.h"
 161              		.file 6 "Drivers/STM32F4xx_HAL_Driver/Inc/stm32f4xx_hal_dma.h"
 162              		.file 7 "Drivers/STM32F4xx_HAL_Driver/Inc/stm32f4xx_hal_uart.h"
 163              		.file 8 "Lib/stmlibs/stmlibs_status.h"
 164              		.file 9 "Lib/stmlibs/logger/logger.h"
 165              		.file 10 "Core/Inc/logger_wrapper.h"
 166              		.file 11 "Core/Inc/usart.h"
ARM GAS  /tmp/ccJHnlq5.s 			page 5

