ARM GAS  /tmp/cc9PVTqA.s 			page 1


   1              		.cpu cortex-m4
   2              		.arch armv7e-m
   3              		.fpu fpv4-sp-d16
   4              		.eabi_attribute 27, 1
   5              		.eabi_attribute 28, 1
   6              		.eabi_attribute 20, 1
   7              		.eabi_attribute 21, 1
   8              		.eabi_attribute 23, 3
   9              		.eabi_attribute 24, 1
  10              		.eabi_attribute 25, 1
  11              		.eabi_attribute 26, 1
  12              		.eabi_attribute 30, 1
  13              		.eabi_attribute 34, 1
  14              		.eabi_attribute 18, 4
  15              		.file	"timer_utils.c"
  16              		.text
  17              	.Ltext0:
  18              		.cfi_sections	.debug_frame
  19              		.file 1 "Lib/stmlibs/timer_utils/timer_utils.c"
  20              		.section	.text.TIM_GetInternalClkFreq,"ax",%progbits
  21              		.align	1
  22              		.global	TIM_GetInternalClkFreq
  23              		.syntax unified
  24              		.thumb
  25              		.thumb_func
  27              	TIM_GetInternalClkFreq:
  28              	.LVL0:
  29              	.LFB235:
   1:Lib/stmlibs/timer_utils/timer_utils.c **** /*
   2:Lib/stmlibs/timer_utils/timer_utils.c ****  * "THE BEER-WARE LICENSE" (Revision 69):
   3:Lib/stmlibs/timer_utils/timer_utils.c ****  * Squadra Corse firmware team wrote this file. As long as you retain this notice
   4:Lib/stmlibs/timer_utils/timer_utils.c ****  * you can do whatever you want with this stuff. If we meet some day, and you 
   5:Lib/stmlibs/timer_utils/timer_utils.c ****  * think this stuff is worth it, you can buy us a beer in return.
   6:Lib/stmlibs/timer_utils/timer_utils.c ****  * 
   7:Lib/stmlibs/timer_utils/timer_utils.c ****  * Authors
   8:Lib/stmlibs/timer_utils/timer_utils.c ****  * - Federico Carbone [federico.carbone.sc@gmail.com]
   9:Lib/stmlibs/timer_utils/timer_utils.c ****  */
  10:Lib/stmlibs/timer_utils/timer_utils.c **** 
  11:Lib/stmlibs/timer_utils/timer_utils.c **** #include "timer_utils.h"
  12:Lib/stmlibs/timer_utils/timer_utils.c **** 
  13:Lib/stmlibs/timer_utils/timer_utils.c **** uint32_t TIM_GetInternalClkFreq(TIM_HandleTypeDef *htim) {
  30              		.loc 1 13 58 view -0
  31              		.cfi_startproc
  32              		@ args = 0, pretend = 0, frame = 24
  33              		@ frame_needed = 0, uses_anonymous_args = 0
  34              		.loc 1 13 58 is_stmt 0 view .LVU1
  35 0000 10B5     		push	{r4, lr}
  36              		.cfi_def_cfa_offset 8
  37              		.cfi_offset 4, -8
  38              		.cfi_offset 14, -4
  39 0002 86B0     		sub	sp, sp, #24
  40              		.cfi_def_cfa_offset 32
  41 0004 0446     		mov	r4, r0
  14:Lib/stmlibs/timer_utils/timer_utils.c ****     RCC_ClkInitTypeDef clkConfig;
  42              		.loc 1 14 5 is_stmt 1 view .LVU2
  15:Lib/stmlibs/timer_utils/timer_utils.c ****     uint32_t pFlatency;
  43              		.loc 1 15 5 view .LVU3
ARM GAS  /tmp/cc9PVTqA.s 			page 2


  16:Lib/stmlibs/timer_utils/timer_utils.c ****     uint32_t uwTimClock, uwAPBxPrescaler = 0U;
  44              		.loc 1 16 5 view .LVU4
  45              	.LVL1:
  17:Lib/stmlibs/timer_utils/timer_utils.c **** 
  18:Lib/stmlibs/timer_utils/timer_utils.c ****     /* Get clock configuration */
  19:Lib/stmlibs/timer_utils/timer_utils.c ****     HAL_RCC_GetClockConfig(&clkConfig, &pFlatency);
  46              		.loc 1 19 5 view .LVU5
  47 0006 6946     		mov	r1, sp
  48 0008 01A8     		add	r0, sp, #4
  49              	.LVL2:
  50              		.loc 1 19 5 is_stmt 0 view .LVU6
  51 000a FFF7FEFF 		bl	HAL_RCC_GetClockConfig
  52              	.LVL3:
  20:Lib/stmlibs/timer_utils/timer_utils.c **** 
  21:Lib/stmlibs/timer_utils/timer_utils.c ****     /* Get APBx prescaler and base clock*/
  22:Lib/stmlibs/timer_utils/timer_utils.c ****     if (_M_GET_TIM_APB_PLACEMENT(htim)) {
  53              		.loc 1 22 5 is_stmt 1 view .LVU7
  54              		.loc 1 22 9 is_stmt 0 view .LVU8
  55 000e 2268     		ldr	r2, [r4]
  56              		.loc 1 22 8 view .LVU9
  57 0010 064B     		ldr	r3, .L6
  58 0012 9A42     		cmp	r2, r3
  59 0014 06D8     		bhi	.L2
  23:Lib/stmlibs/timer_utils/timer_utils.c ****         uwAPBxPrescaler = clkConfig.APB1CLKDivider;
  60              		.loc 1 23 9 is_stmt 1 view .LVU10
  61              		.loc 1 23 25 is_stmt 0 view .LVU11
  62 0016 049C     		ldr	r4, [sp, #16]
  63              	.LVL4:
  24:Lib/stmlibs/timer_utils/timer_utils.c ****         uwTimClock      = HAL_RCC_GetPCLK1Freq();
  64              		.loc 1 24 9 is_stmt 1 view .LVU12
  65              		.loc 1 24 27 is_stmt 0 view .LVU13
  66 0018 FFF7FEFF 		bl	HAL_RCC_GetPCLK1Freq
  67              	.LVL5:
  68              	.L3:
  25:Lib/stmlibs/timer_utils/timer_utils.c ****     } else {
  26:Lib/stmlibs/timer_utils/timer_utils.c ****         uwAPBxPrescaler = clkConfig.APB2CLKDivider;
  27:Lib/stmlibs/timer_utils/timer_utils.c ****         uwTimClock      = HAL_RCC_GetPCLK2Freq();
  28:Lib/stmlibs/timer_utils/timer_utils.c ****     }
  29:Lib/stmlibs/timer_utils/timer_utils.c **** 
  30:Lib/stmlibs/timer_utils/timer_utils.c ****     /* Compute final clock */
  31:Lib/stmlibs/timer_utils/timer_utils.c ****     if (uwAPBxPrescaler != RCC_HCLK_DIV1) {
  69              		.loc 1 31 5 is_stmt 1 view .LVU14
  70              		.loc 1 31 8 is_stmt 0 view .LVU15
  71 001c 04B1     		cbz	r4, .L1
  32:Lib/stmlibs/timer_utils/timer_utils.c ****         /* When the prescaler is not one the frequncy is multipled by 2 for timers */
  33:Lib/stmlibs/timer_utils/timer_utils.c ****         uwTimClock *= 2;
  72              		.loc 1 33 9 is_stmt 1 view .LVU16
  73              		.loc 1 33 20 is_stmt 0 view .LVU17
  74 001e 4000     		lsls	r0, r0, #1
  75              	.LVL6:
  34:Lib/stmlibs/timer_utils/timer_utils.c ****     }
  35:Lib/stmlibs/timer_utils/timer_utils.c **** 
  36:Lib/stmlibs/timer_utils/timer_utils.c ****     return uwTimClock;
  76              		.loc 1 36 5 is_stmt 1 view .LVU18
  77              	.L1:
  37:Lib/stmlibs/timer_utils/timer_utils.c **** }...
  78              		.loc 1 37 1 is_stmt 0 view .LVU19
ARM GAS  /tmp/cc9PVTqA.s 			page 3


  79 0020 06B0     		add	sp, sp, #24
  80              		.cfi_remember_state
  81              		.cfi_def_cfa_offset 8
  82              		@ sp needed
  83 0022 10BD     		pop	{r4, pc}
  84              	.LVL7:
  85              	.L2:
  86              		.cfi_restore_state
  26:Lib/stmlibs/timer_utils/timer_utils.c ****         uwAPBxPrescaler = clkConfig.APB2CLKDivider;
  87              		.loc 1 26 9 is_stmt 1 view .LVU20
  26:Lib/stmlibs/timer_utils/timer_utils.c ****         uwAPBxPrescaler = clkConfig.APB2CLKDivider;
  88              		.loc 1 26 25 is_stmt 0 view .LVU21
  89 0024 059C     		ldr	r4, [sp, #20]
  90              	.LVL8:
  27:Lib/stmlibs/timer_utils/timer_utils.c ****         uwTimClock      = HAL_RCC_GetPCLK2Freq();
  91              		.loc 1 27 9 is_stmt 1 view .LVU22
  27:Lib/stmlibs/timer_utils/timer_utils.c ****         uwTimClock      = HAL_RCC_GetPCLK2Freq();
  92              		.loc 1 27 27 is_stmt 0 view .LVU23
  93 0026 FFF7FEFF 		bl	HAL_RCC_GetPCLK2Freq
  94              	.LVL9:
  27:Lib/stmlibs/timer_utils/timer_utils.c ****         uwTimClock      = HAL_RCC_GetPCLK2Freq();
  95              		.loc 1 27 27 view .LVU24
  96 002a F7E7     		b	.L3
  97              	.L7:
  98              		.align	2
  99              	.L6:
 100 002c FFFF0040 		.word	1073807359
 101              		.cfi_endproc
 102              	.LFE235:
 104              		.text
 105              	.Letext0:
 106              		.file 2 "/usr/arm-none-eabi/include/machine/_default_types.h"
 107              		.file 3 "/usr/arm-none-eabi/include/sys/_stdint.h"
 108              		.file 4 "Drivers/CMSIS/Device/ST/STM32F4xx/Include/stm32f446xx.h"
 109              		.file 5 "Drivers/STM32F4xx_HAL_Driver/Inc/stm32f4xx_hal_def.h"
 110              		.file 6 "Drivers/STM32F4xx_HAL_Driver/Inc/stm32f4xx_hal_rcc.h"
 111              		.file 7 "Drivers/STM32F4xx_HAL_Driver/Inc/stm32f4xx_hal_dma.h"
 112              		.file 8 "Drivers/STM32F4xx_HAL_Driver/Inc/stm32f4xx_hal_tim.h"
ARM GAS  /tmp/cc9PVTqA.s 			page 4

