ARM GAS  /tmp/ccAeUcmn.s 			page 1


   1              		.cpu cortex-m4
   2              		.arch armv7e-m
   3              		.fpu fpv4-sp-d16
   4              		.eabi_attribute 27, 1
   5              		.eabi_attribute 28, 1
   6              		.eabi_attribute 20, 1
   7              		.eabi_attribute 21, 1
   8              		.eabi_attribute 23, 3
   9              		.eabi_attribute 24, 1
  10              		.eabi_attribute 25, 1
  11              		.eabi_attribute 26, 1
  12              		.eabi_attribute 30, 1
  13              		.eabi_attribute 34, 1
  14              		.eabi_attribute 18, 4
  15              		.file	"usart.c"
  16              		.text
  17              	.Ltext0:
  18              		.cfi_sections	.debug_frame
  19              		.file 1 "Core/Src/usart.c"
  20              		.section	.text.MX_UART5_Init,"ax",%progbits
  21              		.align	1
  22              		.global	MX_UART5_Init
  23              		.syntax unified
  24              		.thumb
  25              		.thumb_func
  27              	MX_UART5_Init:
  28              	.LFB235:
   1:Core/Src/usart.c **** /* USER CODE BEGIN Header */
   2:Core/Src/usart.c **** /**
   3:Core/Src/usart.c ****   ******************************************************************************
   4:Core/Src/usart.c ****   * @file    usart.c
   5:Core/Src/usart.c ****   * @brief   This file provides code for the configuration
   6:Core/Src/usart.c ****   *          of the USART instances.
   7:Core/Src/usart.c ****   ******************************************************************************
   8:Core/Src/usart.c ****   * @attention
   9:Core/Src/usart.c ****   *
  10:Core/Src/usart.c ****   * Copyright (c) 2023 STMicroelectronics.
  11:Core/Src/usart.c ****   * All rights reserved.
  12:Core/Src/usart.c ****   *
  13:Core/Src/usart.c ****   * This software is licensed under terms that can be found in the LICENSE file
  14:Core/Src/usart.c ****   * in the root directory of this software component.
  15:Core/Src/usart.c ****   * If no LICENSE file comes with this software, it is provided AS-IS.
  16:Core/Src/usart.c ****   *
  17:Core/Src/usart.c ****   ******************************************************************************
  18:Core/Src/usart.c ****   */
  19:Core/Src/usart.c **** /* USER CODE END Header */
  20:Core/Src/usart.c **** /* Includes ------------------------------------------------------------------*/
  21:Core/Src/usart.c **** #include "usart.h"
  22:Core/Src/usart.c **** 
  23:Core/Src/usart.c **** /* USER CODE BEGIN 0 */
  24:Core/Src/usart.c **** 
  25:Core/Src/usart.c **** /* USER CODE END 0 */
  26:Core/Src/usart.c **** 
  27:Core/Src/usart.c **** UART_HandleTypeDef huart5;
  28:Core/Src/usart.c **** UART_HandleTypeDef huart1;
  29:Core/Src/usart.c **** 
  30:Core/Src/usart.c **** /* UART5 init function */
ARM GAS  /tmp/ccAeUcmn.s 			page 2


  31:Core/Src/usart.c **** void MX_UART5_Init(void)
  32:Core/Src/usart.c **** {
  29              		.loc 1 32 1 view -0
  30              		.cfi_startproc
  31              		@ args = 0, pretend = 0, frame = 0
  32              		@ frame_needed = 0, uses_anonymous_args = 0
  33 0000 08B5     		push	{r3, lr}
  34              		.cfi_def_cfa_offset 8
  35              		.cfi_offset 3, -8
  36              		.cfi_offset 14, -4
  33:Core/Src/usart.c **** 
  34:Core/Src/usart.c ****   /* USER CODE BEGIN UART5_Init 0 */
  35:Core/Src/usart.c **** 
  36:Core/Src/usart.c ****   /* USER CODE END UART5_Init 0 */
  37:Core/Src/usart.c **** 
  38:Core/Src/usart.c ****   /* USER CODE BEGIN UART5_Init 1 */
  39:Core/Src/usart.c **** 
  40:Core/Src/usart.c ****   /* USER CODE END UART5_Init 1 */
  41:Core/Src/usart.c ****   huart5.Instance = UART5;
  37              		.loc 1 41 3 view .LVU1
  38              		.loc 1 41 19 is_stmt 0 view .LVU2
  39 0002 0A48     		ldr	r0, .L5
  40 0004 0A4B     		ldr	r3, .L5+4
  41 0006 0360     		str	r3, [r0]
  42:Core/Src/usart.c ****   huart5.Init.BaudRate = 115200;
  42              		.loc 1 42 3 is_stmt 1 view .LVU3
  43              		.loc 1 42 24 is_stmt 0 view .LVU4
  44 0008 4FF4E133 		mov	r3, #115200
  45 000c 4360     		str	r3, [r0, #4]
  43:Core/Src/usart.c ****   huart5.Init.WordLength = UART_WORDLENGTH_8B;
  46              		.loc 1 43 3 is_stmt 1 view .LVU5
  47              		.loc 1 43 26 is_stmt 0 view .LVU6
  48 000e 0023     		movs	r3, #0
  49 0010 8360     		str	r3, [r0, #8]
  44:Core/Src/usart.c ****   huart5.Init.StopBits = UART_STOPBITS_1;
  50              		.loc 1 44 3 is_stmt 1 view .LVU7
  51              		.loc 1 44 24 is_stmt 0 view .LVU8
  52 0012 C360     		str	r3, [r0, #12]
  45:Core/Src/usart.c ****   huart5.Init.Parity = UART_PARITY_NONE;
  53              		.loc 1 45 3 is_stmt 1 view .LVU9
  54              		.loc 1 45 22 is_stmt 0 view .LVU10
  55 0014 0361     		str	r3, [r0, #16]
  46:Core/Src/usart.c ****   huart5.Init.Mode = UART_MODE_TX_RX;
  56              		.loc 1 46 3 is_stmt 1 view .LVU11
  57              		.loc 1 46 20 is_stmt 0 view .LVU12
  58 0016 0C22     		movs	r2, #12
  59 0018 4261     		str	r2, [r0, #20]
  47:Core/Src/usart.c ****   huart5.Init.HwFlowCtl = UART_HWCONTROL_NONE;
  60              		.loc 1 47 3 is_stmt 1 view .LVU13
  61              		.loc 1 47 25 is_stmt 0 view .LVU14
  62 001a 8361     		str	r3, [r0, #24]
  48:Core/Src/usart.c ****   huart5.Init.OverSampling = UART_OVERSAMPLING_16;
  63              		.loc 1 48 3 is_stmt 1 view .LVU15
  64              		.loc 1 48 28 is_stmt 0 view .LVU16
  65 001c C361     		str	r3, [r0, #28]
  49:Core/Src/usart.c ****   if (HAL_UART_Init(&huart5) != HAL_OK)
  66              		.loc 1 49 3 is_stmt 1 view .LVU17
ARM GAS  /tmp/ccAeUcmn.s 			page 3


  67              		.loc 1 49 7 is_stmt 0 view .LVU18
  68 001e FFF7FEFF 		bl	HAL_UART_Init
  69              	.LVL0:
  70              		.loc 1 49 6 discriminator 1 view .LVU19
  71 0022 00B9     		cbnz	r0, .L4
  72              	.L1:
  50:Core/Src/usart.c ****   {
  51:Core/Src/usart.c ****     Error_Handler();
  52:Core/Src/usart.c ****   }
  53:Core/Src/usart.c ****   /* USER CODE BEGIN UART5_Init 2 */
  54:Core/Src/usart.c **** 
  55:Core/Src/usart.c ****   /* USER CODE END UART5_Init 2 */
  56:Core/Src/usart.c **** 
  57:Core/Src/usart.c **** }
  73              		.loc 1 57 1 view .LVU20
  74 0024 08BD     		pop	{r3, pc}
  75              	.L4:
  51:Core/Src/usart.c ****   }
  76              		.loc 1 51 5 is_stmt 1 view .LVU21
  77 0026 FFF7FEFF 		bl	Error_Handler
  78              	.LVL1:
  79              		.loc 1 57 1 is_stmt 0 view .LVU22
  80 002a FBE7     		b	.L1
  81              	.L6:
  82              		.align	2
  83              	.L5:
  84 002c 00000000 		.word	huart5
  85 0030 00500040 		.word	1073762304
  86              		.cfi_endproc
  87              	.LFE235:
  89              		.section	.text.MX_USART1_UART_Init,"ax",%progbits
  90              		.align	1
  91              		.global	MX_USART1_UART_Init
  92              		.syntax unified
  93              		.thumb
  94              		.thumb_func
  96              	MX_USART1_UART_Init:
  97              	.LFB236:
  58:Core/Src/usart.c **** /* USART1 init function */
  59:Core/Src/usart.c **** 
  60:Core/Src/usart.c **** void MX_USART1_UART_Init(void)
  61:Core/Src/usart.c **** {
  98              		.loc 1 61 1 is_stmt 1 view -0
  99              		.cfi_startproc
 100              		@ args = 0, pretend = 0, frame = 0
 101              		@ frame_needed = 0, uses_anonymous_args = 0
 102 0000 08B5     		push	{r3, lr}
 103              		.cfi_def_cfa_offset 8
 104              		.cfi_offset 3, -8
 105              		.cfi_offset 14, -4
  62:Core/Src/usart.c **** 
  63:Core/Src/usart.c ****   /* USER CODE BEGIN USART1_Init 0 */
  64:Core/Src/usart.c **** 
  65:Core/Src/usart.c ****   /* USER CODE END USART1_Init 0 */
  66:Core/Src/usart.c **** 
  67:Core/Src/usart.c ****   /* USER CODE BEGIN USART1_Init 1 */
  68:Core/Src/usart.c **** 
ARM GAS  /tmp/ccAeUcmn.s 			page 4


  69:Core/Src/usart.c ****   /* USER CODE END USART1_Init 1 */
  70:Core/Src/usart.c ****   huart1.Instance = USART1;
 106              		.loc 1 70 3 view .LVU24
 107              		.loc 1 70 19 is_stmt 0 view .LVU25
 108 0002 0A48     		ldr	r0, .L11
 109 0004 0A4B     		ldr	r3, .L11+4
 110 0006 0360     		str	r3, [r0]
  71:Core/Src/usart.c ****   huart1.Init.BaudRate = 115200;
 111              		.loc 1 71 3 is_stmt 1 view .LVU26
 112              		.loc 1 71 24 is_stmt 0 view .LVU27
 113 0008 4FF4E133 		mov	r3, #115200
 114 000c 4360     		str	r3, [r0, #4]
  72:Core/Src/usart.c ****   huart1.Init.WordLength = UART_WORDLENGTH_8B;
 115              		.loc 1 72 3 is_stmt 1 view .LVU28
 116              		.loc 1 72 26 is_stmt 0 view .LVU29
 117 000e 0023     		movs	r3, #0
 118 0010 8360     		str	r3, [r0, #8]
  73:Core/Src/usart.c ****   huart1.Init.StopBits = UART_STOPBITS_1;
 119              		.loc 1 73 3 is_stmt 1 view .LVU30
 120              		.loc 1 73 24 is_stmt 0 view .LVU31
 121 0012 C360     		str	r3, [r0, #12]
  74:Core/Src/usart.c ****   huart1.Init.Parity = UART_PARITY_NONE;
 122              		.loc 1 74 3 is_stmt 1 view .LVU32
 123              		.loc 1 74 22 is_stmt 0 view .LVU33
 124 0014 0361     		str	r3, [r0, #16]
  75:Core/Src/usart.c ****   huart1.Init.Mode = UART_MODE_TX_RX;
 125              		.loc 1 75 3 is_stmt 1 view .LVU34
 126              		.loc 1 75 20 is_stmt 0 view .LVU35
 127 0016 0C22     		movs	r2, #12
 128 0018 4261     		str	r2, [r0, #20]
  76:Core/Src/usart.c ****   huart1.Init.HwFlowCtl = UART_HWCONTROL_NONE;
 129              		.loc 1 76 3 is_stmt 1 view .LVU36
 130              		.loc 1 76 25 is_stmt 0 view .LVU37
 131 001a 8361     		str	r3, [r0, #24]
  77:Core/Src/usart.c ****   huart1.Init.OverSampling = UART_OVERSAMPLING_16;
 132              		.loc 1 77 3 is_stmt 1 view .LVU38
 133              		.loc 1 77 28 is_stmt 0 view .LVU39
 134 001c C361     		str	r3, [r0, #28]
  78:Core/Src/usart.c ****   if (HAL_UART_Init(&huart1) != HAL_OK)
 135              		.loc 1 78 3 is_stmt 1 view .LVU40
 136              		.loc 1 78 7 is_stmt 0 view .LVU41
 137 001e FFF7FEFF 		bl	HAL_UART_Init
 138              	.LVL2:
 139              		.loc 1 78 6 discriminator 1 view .LVU42
 140 0022 00B9     		cbnz	r0, .L10
 141              	.L7:
  79:Core/Src/usart.c ****   {
  80:Core/Src/usart.c ****     Error_Handler();
  81:Core/Src/usart.c ****   }
  82:Core/Src/usart.c ****   /* USER CODE BEGIN USART1_Init 2 */
  83:Core/Src/usart.c **** 
  84:Core/Src/usart.c ****   /* USER CODE END USART1_Init 2 */
  85:Core/Src/usart.c **** 
  86:Core/Src/usart.c **** }
 142              		.loc 1 86 1 view .LVU43
 143 0024 08BD     		pop	{r3, pc}
 144              	.L10:
ARM GAS  /tmp/ccAeUcmn.s 			page 5


  80:Core/Src/usart.c ****   }
 145              		.loc 1 80 5 is_stmt 1 view .LVU44
 146 0026 FFF7FEFF 		bl	Error_Handler
 147              	.LVL3:
 148              		.loc 1 86 1 is_stmt 0 view .LVU45
 149 002a FBE7     		b	.L7
 150              	.L12:
 151              		.align	2
 152              	.L11:
 153 002c 00000000 		.word	huart1
 154 0030 00100140 		.word	1073811456
 155              		.cfi_endproc
 156              	.LFE236:
 158              		.section	.text.HAL_UART_MspInit,"ax",%progbits
 159              		.align	1
 160              		.global	HAL_UART_MspInit
 161              		.syntax unified
 162              		.thumb
 163              		.thumb_func
 165              	HAL_UART_MspInit:
 166              	.LVL4:
 167              	.LFB237:
  87:Core/Src/usart.c **** 
  88:Core/Src/usart.c **** void HAL_UART_MspInit(UART_HandleTypeDef* uartHandle)
  89:Core/Src/usart.c **** {
 168              		.loc 1 89 1 is_stmt 1 view -0
 169              		.cfi_startproc
 170              		@ args = 0, pretend = 0, frame = 40
 171              		@ frame_needed = 0, uses_anonymous_args = 0
 172              		.loc 1 89 1 is_stmt 0 view .LVU47
 173 0000 F0B5     		push	{r4, r5, r6, r7, lr}
 174              		.cfi_def_cfa_offset 20
 175              		.cfi_offset 4, -20
 176              		.cfi_offset 5, -16
 177              		.cfi_offset 6, -12
 178              		.cfi_offset 7, -8
 179              		.cfi_offset 14, -4
 180 0002 8BB0     		sub	sp, sp, #44
 181              		.cfi_def_cfa_offset 64
  90:Core/Src/usart.c **** 
  91:Core/Src/usart.c ****   GPIO_InitTypeDef GPIO_InitStruct = {0};
 182              		.loc 1 91 3 is_stmt 1 view .LVU48
 183              		.loc 1 91 20 is_stmt 0 view .LVU49
 184 0004 0023     		movs	r3, #0
 185 0006 0593     		str	r3, [sp, #20]
 186 0008 0693     		str	r3, [sp, #24]
 187 000a 0793     		str	r3, [sp, #28]
 188 000c 0893     		str	r3, [sp, #32]
 189 000e 0993     		str	r3, [sp, #36]
  92:Core/Src/usart.c ****   if(uartHandle->Instance==UART5)
 190              		.loc 1 92 3 is_stmt 1 view .LVU50
 191              		.loc 1 92 16 is_stmt 0 view .LVU51
 192 0010 0368     		ldr	r3, [r0]
 193              		.loc 1 92 5 view .LVU52
 194 0012 364A     		ldr	r2, .L19
 195 0014 9342     		cmp	r3, r2
 196 0016 04D0     		beq	.L17
ARM GAS  /tmp/ccAeUcmn.s 			page 6


  93:Core/Src/usart.c ****   {
  94:Core/Src/usart.c ****   /* USER CODE BEGIN UART5_MspInit 0 */
  95:Core/Src/usart.c **** 
  96:Core/Src/usart.c ****   /* USER CODE END UART5_MspInit 0 */
  97:Core/Src/usart.c ****     /* UART5 clock enable */
  98:Core/Src/usart.c ****     __HAL_RCC_UART5_CLK_ENABLE();
  99:Core/Src/usart.c **** 
 100:Core/Src/usart.c ****     __HAL_RCC_GPIOC_CLK_ENABLE();
 101:Core/Src/usart.c ****     __HAL_RCC_GPIOD_CLK_ENABLE();
 102:Core/Src/usart.c ****     /**UART5 GPIO Configuration
 103:Core/Src/usart.c ****     PC12     ------> UART5_TX
 104:Core/Src/usart.c ****     PD2     ------> UART5_RX
 105:Core/Src/usart.c ****     */
 106:Core/Src/usart.c ****     GPIO_InitStruct.Pin = ADS112U04_RX_UART5_TX_Pin;
 107:Core/Src/usart.c ****     GPIO_InitStruct.Mode = GPIO_MODE_AF_PP;
 108:Core/Src/usart.c ****     GPIO_InitStruct.Pull = GPIO_NOPULL;
 109:Core/Src/usart.c ****     GPIO_InitStruct.Speed = GPIO_SPEED_FREQ_VERY_HIGH;
 110:Core/Src/usart.c ****     GPIO_InitStruct.Alternate = GPIO_AF8_UART5;
 111:Core/Src/usart.c ****     HAL_GPIO_Init(ADS112U04_RX_UART5_TX_GPIO_Port, &GPIO_InitStruct);
 112:Core/Src/usart.c **** 
 113:Core/Src/usart.c ****     GPIO_InitStruct.Pin = ADS112U04_TX_UART5_RX_Pin;
 114:Core/Src/usart.c ****     GPIO_InitStruct.Mode = GPIO_MODE_AF_PP;
 115:Core/Src/usart.c ****     GPIO_InitStruct.Pull = GPIO_NOPULL;
 116:Core/Src/usart.c ****     GPIO_InitStruct.Speed = GPIO_SPEED_FREQ_VERY_HIGH;
 117:Core/Src/usart.c ****     GPIO_InitStruct.Alternate = GPIO_AF8_UART5;
 118:Core/Src/usart.c ****     HAL_GPIO_Init(ADS112U04_TX_UART5_RX_GPIO_Port, &GPIO_InitStruct);
 119:Core/Src/usart.c **** 
 120:Core/Src/usart.c ****   /* USER CODE BEGIN UART5_MspInit 1 */
 121:Core/Src/usart.c **** 
 122:Core/Src/usart.c ****   /* USER CODE END UART5_MspInit 1 */
 123:Core/Src/usart.c ****   }
 124:Core/Src/usart.c ****   else if(uartHandle->Instance==USART1)
 197              		.loc 1 124 8 is_stmt 1 view .LVU53
 198              		.loc 1 124 10 is_stmt 0 view .LVU54
 199 0018 354A     		ldr	r2, .L19+4
 200 001a 9342     		cmp	r3, r2
 201 001c 39D0     		beq	.L18
 202              	.LVL5:
 203              	.L13:
 125:Core/Src/usart.c ****   {
 126:Core/Src/usart.c ****   /* USER CODE BEGIN USART1_MspInit 0 */
 127:Core/Src/usart.c **** 
 128:Core/Src/usart.c ****   /* USER CODE END USART1_MspInit 0 */
 129:Core/Src/usart.c ****     /* USART1 clock enable */
 130:Core/Src/usart.c ****     __HAL_RCC_USART1_CLK_ENABLE();
 131:Core/Src/usart.c **** 
 132:Core/Src/usart.c ****     __HAL_RCC_GPIOA_CLK_ENABLE();
 133:Core/Src/usart.c ****     /**USART1 GPIO Configuration
 134:Core/Src/usart.c ****     PA9     ------> USART1_TX
 135:Core/Src/usart.c ****     PA10     ------> USART1_RX
 136:Core/Src/usart.c ****     */
 137:Core/Src/usart.c ****     GPIO_InitStruct.Pin = T_VCP_TX_USART1_TX_Pin|T_VCP_RX_USART1_RX_Pin;
 138:Core/Src/usart.c ****     GPIO_InitStruct.Mode = GPIO_MODE_AF_PP;
 139:Core/Src/usart.c ****     GPIO_InitStruct.Pull = GPIO_NOPULL;
 140:Core/Src/usart.c ****     GPIO_InitStruct.Speed = GPIO_SPEED_FREQ_VERY_HIGH;
 141:Core/Src/usart.c ****     GPIO_InitStruct.Alternate = GPIO_AF7_USART1;
 142:Core/Src/usart.c ****     HAL_GPIO_Init(GPIOA, &GPIO_InitStruct);
ARM GAS  /tmp/ccAeUcmn.s 			page 7


 143:Core/Src/usart.c **** 
 144:Core/Src/usart.c ****     /* USART1 interrupt Init */
 145:Core/Src/usart.c ****     HAL_NVIC_SetPriority(USART1_IRQn, 0, 0);
 146:Core/Src/usart.c ****     HAL_NVIC_EnableIRQ(USART1_IRQn);
 147:Core/Src/usart.c ****   /* USER CODE BEGIN USART1_MspInit 1 */
 148:Core/Src/usart.c **** 
 149:Core/Src/usart.c ****   /* USER CODE END USART1_MspInit 1 */
 150:Core/Src/usart.c ****   }
 151:Core/Src/usart.c **** }
 204              		.loc 1 151 1 view .LVU55
 205 001e 0BB0     		add	sp, sp, #44
 206              		.cfi_remember_state
 207              		.cfi_def_cfa_offset 20
 208              		@ sp needed
 209 0020 F0BD     		pop	{r4, r5, r6, r7, pc}
 210              	.LVL6:
 211              	.L17:
 212              		.cfi_restore_state
  98:Core/Src/usart.c **** 
 213              		.loc 1 98 5 is_stmt 1 view .LVU56
 214              	.LBB2:
  98:Core/Src/usart.c **** 
 215              		.loc 1 98 5 view .LVU57
 216 0022 0024     		movs	r4, #0
 217 0024 0094     		str	r4, [sp]
  98:Core/Src/usart.c **** 
 218              		.loc 1 98 5 view .LVU58
 219 0026 334B     		ldr	r3, .L19+8
 220 0028 1A6C     		ldr	r2, [r3, #64]
 221 002a 42F48012 		orr	r2, r2, #1048576
 222 002e 1A64     		str	r2, [r3, #64]
  98:Core/Src/usart.c **** 
 223              		.loc 1 98 5 view .LVU59
 224 0030 1A6C     		ldr	r2, [r3, #64]
 225 0032 02F48012 		and	r2, r2, #1048576
 226 0036 0092     		str	r2, [sp]
  98:Core/Src/usart.c **** 
 227              		.loc 1 98 5 view .LVU60
 228 0038 009A     		ldr	r2, [sp]
 229              	.LBE2:
  98:Core/Src/usart.c **** 
 230              		.loc 1 98 5 view .LVU61
 100:Core/Src/usart.c ****     __HAL_RCC_GPIOD_CLK_ENABLE();
 231              		.loc 1 100 5 view .LVU62
 232              	.LBB3:
 100:Core/Src/usart.c ****     __HAL_RCC_GPIOD_CLK_ENABLE();
 233              		.loc 1 100 5 view .LVU63
 234 003a 0194     		str	r4, [sp, #4]
 100:Core/Src/usart.c ****     __HAL_RCC_GPIOD_CLK_ENABLE();
 235              		.loc 1 100 5 view .LVU64
 236 003c 1A6B     		ldr	r2, [r3, #48]
 237 003e 42F00402 		orr	r2, r2, #4
 238 0042 1A63     		str	r2, [r3, #48]
 100:Core/Src/usart.c ****     __HAL_RCC_GPIOD_CLK_ENABLE();
 239              		.loc 1 100 5 view .LVU65
 240 0044 1A6B     		ldr	r2, [r3, #48]
 241 0046 02F00402 		and	r2, r2, #4
ARM GAS  /tmp/ccAeUcmn.s 			page 8


 242 004a 0192     		str	r2, [sp, #4]
 100:Core/Src/usart.c ****     __HAL_RCC_GPIOD_CLK_ENABLE();
 243              		.loc 1 100 5 view .LVU66
 244 004c 019A     		ldr	r2, [sp, #4]
 245              	.LBE3:
 100:Core/Src/usart.c ****     __HAL_RCC_GPIOD_CLK_ENABLE();
 246              		.loc 1 100 5 view .LVU67
 101:Core/Src/usart.c ****     /**UART5 GPIO Configuration
 247              		.loc 1 101 5 view .LVU68
 248              	.LBB4:
 101:Core/Src/usart.c ****     /**UART5 GPIO Configuration
 249              		.loc 1 101 5 view .LVU69
 250 004e 0294     		str	r4, [sp, #8]
 101:Core/Src/usart.c ****     /**UART5 GPIO Configuration
 251              		.loc 1 101 5 view .LVU70
 252 0050 1A6B     		ldr	r2, [r3, #48]
 253 0052 42F00802 		orr	r2, r2, #8
 254 0056 1A63     		str	r2, [r3, #48]
 101:Core/Src/usart.c ****     /**UART5 GPIO Configuration
 255              		.loc 1 101 5 view .LVU71
 256 0058 1B6B     		ldr	r3, [r3, #48]
 257 005a 03F00803 		and	r3, r3, #8
 258 005e 0293     		str	r3, [sp, #8]
 101:Core/Src/usart.c ****     /**UART5 GPIO Configuration
 259              		.loc 1 101 5 view .LVU72
 260 0060 029B     		ldr	r3, [sp, #8]
 261              	.LBE4:
 101:Core/Src/usart.c ****     /**UART5 GPIO Configuration
 262              		.loc 1 101 5 view .LVU73
 106:Core/Src/usart.c ****     GPIO_InitStruct.Mode = GPIO_MODE_AF_PP;
 263              		.loc 1 106 5 view .LVU74
 106:Core/Src/usart.c ****     GPIO_InitStruct.Mode = GPIO_MODE_AF_PP;
 264              		.loc 1 106 25 is_stmt 0 view .LVU75
 265 0062 4FF48053 		mov	r3, #4096
 266 0066 0593     		str	r3, [sp, #20]
 107:Core/Src/usart.c ****     GPIO_InitStruct.Pull = GPIO_NOPULL;
 267              		.loc 1 107 5 is_stmt 1 view .LVU76
 107:Core/Src/usart.c ****     GPIO_InitStruct.Pull = GPIO_NOPULL;
 268              		.loc 1 107 26 is_stmt 0 view .LVU77
 269 0068 0227     		movs	r7, #2
 270 006a 0697     		str	r7, [sp, #24]
 108:Core/Src/usart.c ****     GPIO_InitStruct.Speed = GPIO_SPEED_FREQ_VERY_HIGH;
 271              		.loc 1 108 5 is_stmt 1 view .LVU78
 109:Core/Src/usart.c ****     GPIO_InitStruct.Alternate = GPIO_AF8_UART5;
 272              		.loc 1 109 5 view .LVU79
 109:Core/Src/usart.c ****     GPIO_InitStruct.Alternate = GPIO_AF8_UART5;
 273              		.loc 1 109 27 is_stmt 0 view .LVU80
 274 006c 0326     		movs	r6, #3
 275 006e 0896     		str	r6, [sp, #32]
 110:Core/Src/usart.c ****     HAL_GPIO_Init(ADS112U04_RX_UART5_TX_GPIO_Port, &GPIO_InitStruct);
 276              		.loc 1 110 5 is_stmt 1 view .LVU81
 110:Core/Src/usart.c ****     HAL_GPIO_Init(ADS112U04_RX_UART5_TX_GPIO_Port, &GPIO_InitStruct);
 277              		.loc 1 110 31 is_stmt 0 view .LVU82
 278 0070 0825     		movs	r5, #8
 279 0072 0995     		str	r5, [sp, #36]
 111:Core/Src/usart.c **** 
 280              		.loc 1 111 5 is_stmt 1 view .LVU83
ARM GAS  /tmp/ccAeUcmn.s 			page 9


 281 0074 05A9     		add	r1, sp, #20
 282 0076 2048     		ldr	r0, .L19+12
 283              	.LVL7:
 111:Core/Src/usart.c **** 
 284              		.loc 1 111 5 is_stmt 0 view .LVU84
 285 0078 FFF7FEFF 		bl	HAL_GPIO_Init
 286              	.LVL8:
 113:Core/Src/usart.c ****     GPIO_InitStruct.Mode = GPIO_MODE_AF_PP;
 287              		.loc 1 113 5 is_stmt 1 view .LVU85
 113:Core/Src/usart.c ****     GPIO_InitStruct.Mode = GPIO_MODE_AF_PP;
 288              		.loc 1 113 25 is_stmt 0 view .LVU86
 289 007c 0423     		movs	r3, #4
 290 007e 0593     		str	r3, [sp, #20]
 114:Core/Src/usart.c ****     GPIO_InitStruct.Pull = GPIO_NOPULL;
 291              		.loc 1 114 5 is_stmt 1 view .LVU87
 114:Core/Src/usart.c ****     GPIO_InitStruct.Pull = GPIO_NOPULL;
 292              		.loc 1 114 26 is_stmt 0 view .LVU88
 293 0080 0697     		str	r7, [sp, #24]
 115:Core/Src/usart.c ****     GPIO_InitStruct.Speed = GPIO_SPEED_FREQ_VERY_HIGH;
 294              		.loc 1 115 5 is_stmt 1 view .LVU89
 115:Core/Src/usart.c ****     GPIO_InitStruct.Speed = GPIO_SPEED_FREQ_VERY_HIGH;
 295              		.loc 1 115 26 is_stmt 0 view .LVU90
 296 0082 0794     		str	r4, [sp, #28]
 116:Core/Src/usart.c ****     GPIO_InitStruct.Alternate = GPIO_AF8_UART5;
 297              		.loc 1 116 5 is_stmt 1 view .LVU91
 116:Core/Src/usart.c ****     GPIO_InitStruct.Alternate = GPIO_AF8_UART5;
 298              		.loc 1 116 27 is_stmt 0 view .LVU92
 299 0084 0896     		str	r6, [sp, #32]
 117:Core/Src/usart.c ****     HAL_GPIO_Init(ADS112U04_TX_UART5_RX_GPIO_Port, &GPIO_InitStruct);
 300              		.loc 1 117 5 is_stmt 1 view .LVU93
 117:Core/Src/usart.c ****     HAL_GPIO_Init(ADS112U04_TX_UART5_RX_GPIO_Port, &GPIO_InitStruct);
 301              		.loc 1 117 31 is_stmt 0 view .LVU94
 302 0086 0995     		str	r5, [sp, #36]
 118:Core/Src/usart.c **** 
 303              		.loc 1 118 5 is_stmt 1 view .LVU95
 304 0088 05A9     		add	r1, sp, #20
 305 008a 1C48     		ldr	r0, .L19+16
 306 008c FFF7FEFF 		bl	HAL_GPIO_Init
 307              	.LVL9:
 308 0090 C5E7     		b	.L13
 309              	.LVL10:
 310              	.L18:
 130:Core/Src/usart.c **** 
 311              		.loc 1 130 5 view .LVU96
 312              	.LBB5:
 130:Core/Src/usart.c **** 
 313              		.loc 1 130 5 view .LVU97
 314 0092 0024     		movs	r4, #0
 315 0094 0394     		str	r4, [sp, #12]
 130:Core/Src/usart.c **** 
 316              		.loc 1 130 5 view .LVU98
 317 0096 174B     		ldr	r3, .L19+8
 318 0098 5A6C     		ldr	r2, [r3, #68]
 319 009a 42F01002 		orr	r2, r2, #16
 320 009e 5A64     		str	r2, [r3, #68]
 130:Core/Src/usart.c **** 
 321              		.loc 1 130 5 view .LVU99
ARM GAS  /tmp/ccAeUcmn.s 			page 10


 322 00a0 5A6C     		ldr	r2, [r3, #68]
 323 00a2 02F01002 		and	r2, r2, #16
 324 00a6 0392     		str	r2, [sp, #12]
 130:Core/Src/usart.c **** 
 325              		.loc 1 130 5 view .LVU100
 326 00a8 039A     		ldr	r2, [sp, #12]
 327              	.LBE5:
 130:Core/Src/usart.c **** 
 328              		.loc 1 130 5 view .LVU101
 132:Core/Src/usart.c ****     /**USART1 GPIO Configuration
 329              		.loc 1 132 5 view .LVU102
 330              	.LBB6:
 132:Core/Src/usart.c ****     /**USART1 GPIO Configuration
 331              		.loc 1 132 5 view .LVU103
 332 00aa 0494     		str	r4, [sp, #16]
 132:Core/Src/usart.c ****     /**USART1 GPIO Configuration
 333              		.loc 1 132 5 view .LVU104
 334 00ac 1A6B     		ldr	r2, [r3, #48]
 335 00ae 42F00102 		orr	r2, r2, #1
 336 00b2 1A63     		str	r2, [r3, #48]
 132:Core/Src/usart.c ****     /**USART1 GPIO Configuration
 337              		.loc 1 132 5 view .LVU105
 338 00b4 1B6B     		ldr	r3, [r3, #48]
 339 00b6 03F00103 		and	r3, r3, #1
 340 00ba 0493     		str	r3, [sp, #16]
 132:Core/Src/usart.c ****     /**USART1 GPIO Configuration
 341              		.loc 1 132 5 view .LVU106
 342 00bc 049B     		ldr	r3, [sp, #16]
 343              	.LBE6:
 132:Core/Src/usart.c ****     /**USART1 GPIO Configuration
 344              		.loc 1 132 5 view .LVU107
 137:Core/Src/usart.c ****     GPIO_InitStruct.Mode = GPIO_MODE_AF_PP;
 345              		.loc 1 137 5 view .LVU108
 137:Core/Src/usart.c ****     GPIO_InitStruct.Mode = GPIO_MODE_AF_PP;
 346              		.loc 1 137 25 is_stmt 0 view .LVU109
 347 00be 4FF4C063 		mov	r3, #1536
 348 00c2 0593     		str	r3, [sp, #20]
 138:Core/Src/usart.c ****     GPIO_InitStruct.Pull = GPIO_NOPULL;
 349              		.loc 1 138 5 is_stmt 1 view .LVU110
 138:Core/Src/usart.c ****     GPIO_InitStruct.Pull = GPIO_NOPULL;
 350              		.loc 1 138 26 is_stmt 0 view .LVU111
 351 00c4 0223     		movs	r3, #2
 352 00c6 0693     		str	r3, [sp, #24]
 139:Core/Src/usart.c ****     GPIO_InitStruct.Speed = GPIO_SPEED_FREQ_VERY_HIGH;
 353              		.loc 1 139 5 is_stmt 1 view .LVU112
 140:Core/Src/usart.c ****     GPIO_InitStruct.Alternate = GPIO_AF7_USART1;
 354              		.loc 1 140 5 view .LVU113
 140:Core/Src/usart.c ****     GPIO_InitStruct.Alternate = GPIO_AF7_USART1;
 355              		.loc 1 140 27 is_stmt 0 view .LVU114
 356 00c8 0323     		movs	r3, #3
 357 00ca 0893     		str	r3, [sp, #32]
 141:Core/Src/usart.c ****     HAL_GPIO_Init(GPIOA, &GPIO_InitStruct);
 358              		.loc 1 141 5 is_stmt 1 view .LVU115
 141:Core/Src/usart.c ****     HAL_GPIO_Init(GPIOA, &GPIO_InitStruct);
 359              		.loc 1 141 31 is_stmt 0 view .LVU116
 360 00cc 0723     		movs	r3, #7
 361 00ce 0993     		str	r3, [sp, #36]
ARM GAS  /tmp/ccAeUcmn.s 			page 11


 142:Core/Src/usart.c **** 
 362              		.loc 1 142 5 is_stmt 1 view .LVU117
 363 00d0 05A9     		add	r1, sp, #20
 364 00d2 0B48     		ldr	r0, .L19+20
 365              	.LVL11:
 142:Core/Src/usart.c **** 
 366              		.loc 1 142 5 is_stmt 0 view .LVU118
 367 00d4 FFF7FEFF 		bl	HAL_GPIO_Init
 368              	.LVL12:
 145:Core/Src/usart.c ****     HAL_NVIC_EnableIRQ(USART1_IRQn);
 369              		.loc 1 145 5 is_stmt 1 view .LVU119
 370 00d8 2246     		mov	r2, r4
 371 00da 2146     		mov	r1, r4
 372 00dc 2520     		movs	r0, #37
 373 00de FFF7FEFF 		bl	HAL_NVIC_SetPriority
 374              	.LVL13:
 146:Core/Src/usart.c ****   /* USER CODE BEGIN USART1_MspInit 1 */
 375              		.loc 1 146 5 view .LVU120
 376 00e2 2520     		movs	r0, #37
 377 00e4 FFF7FEFF 		bl	HAL_NVIC_EnableIRQ
 378              	.LVL14:
 379              		.loc 1 151 1 is_stmt 0 view .LVU121
 380 00e8 99E7     		b	.L13
 381              	.L20:
 382 00ea 00BF     		.align	2
 383              	.L19:
 384 00ec 00500040 		.word	1073762304
 385 00f0 00100140 		.word	1073811456
 386 00f4 00380240 		.word	1073887232
 387 00f8 00080240 		.word	1073874944
 388 00fc 000C0240 		.word	1073875968
 389 0100 00000240 		.word	1073872896
 390              		.cfi_endproc
 391              	.LFE237:
 393              		.section	.text.HAL_UART_MspDeInit,"ax",%progbits
 394              		.align	1
 395              		.global	HAL_UART_MspDeInit
 396              		.syntax unified
 397              		.thumb
 398              		.thumb_func
 400              	HAL_UART_MspDeInit:
 401              	.LVL15:
 402              	.LFB238:
 152:Core/Src/usart.c **** 
 153:Core/Src/usart.c **** void HAL_UART_MspDeInit(UART_HandleTypeDef* uartHandle)
 154:Core/Src/usart.c **** {
 403              		.loc 1 154 1 is_stmt 1 view -0
 404              		.cfi_startproc
 405              		@ args = 0, pretend = 0, frame = 0
 406              		@ frame_needed = 0, uses_anonymous_args = 0
 407              		.loc 1 154 1 is_stmt 0 view .LVU123
 408 0000 08B5     		push	{r3, lr}
 409              		.cfi_def_cfa_offset 8
 410              		.cfi_offset 3, -8
 411              		.cfi_offset 14, -4
 155:Core/Src/usart.c **** 
 156:Core/Src/usart.c ****   if(uartHandle->Instance==UART5)
ARM GAS  /tmp/ccAeUcmn.s 			page 12


 412              		.loc 1 156 3 is_stmt 1 view .LVU124
 413              		.loc 1 156 16 is_stmt 0 view .LVU125
 414 0002 0368     		ldr	r3, [r0]
 415              		.loc 1 156 5 view .LVU126
 416 0004 124A     		ldr	r2, .L27
 417 0006 9342     		cmp	r3, r2
 418 0008 03D0     		beq	.L25
 157:Core/Src/usart.c ****   {
 158:Core/Src/usart.c ****   /* USER CODE BEGIN UART5_MspDeInit 0 */
 159:Core/Src/usart.c **** 
 160:Core/Src/usart.c ****   /* USER CODE END UART5_MspDeInit 0 */
 161:Core/Src/usart.c ****     /* Peripheral clock disable */
 162:Core/Src/usart.c ****     __HAL_RCC_UART5_CLK_DISABLE();
 163:Core/Src/usart.c **** 
 164:Core/Src/usart.c ****     /**UART5 GPIO Configuration
 165:Core/Src/usart.c ****     PC12     ------> UART5_TX
 166:Core/Src/usart.c ****     PD2     ------> UART5_RX
 167:Core/Src/usart.c ****     */
 168:Core/Src/usart.c ****     HAL_GPIO_DeInit(ADS112U04_RX_UART5_TX_GPIO_Port, ADS112U04_RX_UART5_TX_Pin);
 169:Core/Src/usart.c **** 
 170:Core/Src/usart.c ****     HAL_GPIO_DeInit(ADS112U04_TX_UART5_RX_GPIO_Port, ADS112U04_TX_UART5_RX_Pin);
 171:Core/Src/usart.c **** 
 172:Core/Src/usart.c ****   /* USER CODE BEGIN UART5_MspDeInit 1 */
 173:Core/Src/usart.c **** 
 174:Core/Src/usart.c ****   /* USER CODE END UART5_MspDeInit 1 */
 175:Core/Src/usart.c ****   }
 176:Core/Src/usart.c ****   else if(uartHandle->Instance==USART1)
 419              		.loc 1 176 8 is_stmt 1 view .LVU127
 420              		.loc 1 176 10 is_stmt 0 view .LVU128
 421 000a 124A     		ldr	r2, .L27+4
 422 000c 9342     		cmp	r3, r2
 423 000e 10D0     		beq	.L26
 424              	.LVL16:
 425              	.L21:
 177:Core/Src/usart.c ****   {
 178:Core/Src/usart.c ****   /* USER CODE BEGIN USART1_MspDeInit 0 */
 179:Core/Src/usart.c **** 
 180:Core/Src/usart.c ****   /* USER CODE END USART1_MspDeInit 0 */
 181:Core/Src/usart.c ****     /* Peripheral clock disable */
 182:Core/Src/usart.c ****     __HAL_RCC_USART1_CLK_DISABLE();
 183:Core/Src/usart.c **** 
 184:Core/Src/usart.c ****     /**USART1 GPIO Configuration
 185:Core/Src/usart.c ****     PA9     ------> USART1_TX
 186:Core/Src/usart.c ****     PA10     ------> USART1_RX
 187:Core/Src/usart.c ****     */
 188:Core/Src/usart.c ****     HAL_GPIO_DeInit(GPIOA, T_VCP_TX_USART1_TX_Pin|T_VCP_RX_USART1_RX_Pin);
 189:Core/Src/usart.c **** 
 190:Core/Src/usart.c ****     /* USART1 interrupt Deinit */
 191:Core/Src/usart.c ****     HAL_NVIC_DisableIRQ(USART1_IRQn);
 192:Core/Src/usart.c ****   /* USER CODE BEGIN USART1_MspDeInit 1 */
 193:Core/Src/usart.c **** 
 194:Core/Src/usart.c ****   /* USER CODE END USART1_MspDeInit 1 */
 195:Core/Src/usart.c ****   }
 196:Core/Src/usart.c **** }
 426              		.loc 1 196 1 view .LVU129
 427 0010 08BD     		pop	{r3, pc}
 428              	.LVL17:
ARM GAS  /tmp/ccAeUcmn.s 			page 13


 429              	.L25:
 162:Core/Src/usart.c **** 
 430              		.loc 1 162 5 is_stmt 1 view .LVU130
 431 0012 02F5F432 		add	r2, r2, #124928
 432 0016 136C     		ldr	r3, [r2, #64]
 433 0018 23F48013 		bic	r3, r3, #1048576
 434 001c 1364     		str	r3, [r2, #64]
 168:Core/Src/usart.c **** 
 435              		.loc 1 168 5 view .LVU131
 436 001e 4FF48051 		mov	r1, #4096
 437 0022 0D48     		ldr	r0, .L27+8
 438              	.LVL18:
 168:Core/Src/usart.c **** 
 439              		.loc 1 168 5 is_stmt 0 view .LVU132
 440 0024 FFF7FEFF 		bl	HAL_GPIO_DeInit
 441              	.LVL19:
 170:Core/Src/usart.c **** 
 442              		.loc 1 170 5 is_stmt 1 view .LVU133
 443 0028 0421     		movs	r1, #4
 444 002a 0C48     		ldr	r0, .L27+12
 445 002c FFF7FEFF 		bl	HAL_GPIO_DeInit
 446              	.LVL20:
 447 0030 EEE7     		b	.L21
 448              	.LVL21:
 449              	.L26:
 182:Core/Src/usart.c **** 
 450              		.loc 1 182 5 view .LVU134
 451 0032 02F59432 		add	r2, r2, #75776
 452 0036 536C     		ldr	r3, [r2, #68]
 453 0038 23F01003 		bic	r3, r3, #16
 454 003c 5364     		str	r3, [r2, #68]
 188:Core/Src/usart.c **** 
 455              		.loc 1 188 5 view .LVU135
 456 003e 4FF4C061 		mov	r1, #1536
 457 0042 0748     		ldr	r0, .L27+16
 458              	.LVL22:
 188:Core/Src/usart.c **** 
 459              		.loc 1 188 5 is_stmt 0 view .LVU136
 460 0044 FFF7FEFF 		bl	HAL_GPIO_DeInit
 461              	.LVL23:
 191:Core/Src/usart.c ****   /* USER CODE BEGIN USART1_MspDeInit 1 */
 462              		.loc 1 191 5 is_stmt 1 view .LVU137
 463 0048 2520     		movs	r0, #37
 464 004a FFF7FEFF 		bl	HAL_NVIC_DisableIRQ
 465              	.LVL24:
 466              		.loc 1 196 1 is_stmt 0 view .LVU138
 467 004e DFE7     		b	.L21
 468              	.L28:
 469              		.align	2
 470              	.L27:
 471 0050 00500040 		.word	1073762304
 472 0054 00100140 		.word	1073811456
 473 0058 00080240 		.word	1073874944
 474 005c 000C0240 		.word	1073875968
 475 0060 00000240 		.word	1073872896
 476              		.cfi_endproc
 477              	.LFE238:
ARM GAS  /tmp/ccAeUcmn.s 			page 14


 479              		.global	huart1
 480              		.section	.bss.huart1,"aw",%nobits
 481              		.align	2
 484              	huart1:
 485 0000 00000000 		.space	68
 485      00000000 
 485      00000000 
 485      00000000 
 485      00000000 
 486              		.global	huart5
 487              		.section	.bss.huart5,"aw",%nobits
 488              		.align	2
 491              	huart5:
 492 0000 00000000 		.space	68
 492      00000000 
 492      00000000 
 492      00000000 
 492      00000000 
 493              		.text
 494              	.Letext0:
 495              		.file 2 "Drivers/CMSIS/Device/ST/STM32F4xx/Include/stm32f446xx.h"
 496              		.file 3 "/usr/arm-none-eabi/include/machine/_default_types.h"
 497              		.file 4 "/usr/arm-none-eabi/include/sys/_stdint.h"
 498              		.file 5 "Drivers/STM32F4xx_HAL_Driver/Inc/stm32f4xx_hal_def.h"
 499              		.file 6 "Drivers/STM32F4xx_HAL_Driver/Inc/stm32f4xx_hal_gpio.h"
 500              		.file 7 "Drivers/STM32F4xx_HAL_Driver/Inc/stm32f4xx_hal_dma.h"
 501              		.file 8 "Drivers/STM32F4xx_HAL_Driver/Inc/stm32f4xx_hal_uart.h"
 502              		.file 9 "Core/Inc/usart.h"
 503              		.file 10 "Drivers/STM32F4xx_HAL_Driver/Inc/stm32f4xx_hal_cortex.h"
 504              		.file 11 "Core/Inc/main.h"
ARM GAS  /tmp/ccAeUcmn.s 			page 15

